target datalayout = "e-m:e-p270:32:32-p271:32:32-p272:64:64-i64:64-i128:128-f80:128-n8:16:32:64-S128"
target triple = "x86_64-pc-linux-gnu"

@.str.20 = private unnamed_addr constant [5 x i8] c"Data\00", align 1
@hf_gryphon_padding = internal global i32 0, align 4
@hf_gryphon_reserved = internal global i32 0, align 4
@hf_gryphon_options_handle = internal global i32 0, align 4
@hf_gryphon_option = internal global i32 0, align 4
@hf_gryphon_option_data = internal global i32 0, align 4
@ett_gryphon_pgm_options = internal global i32 0, align 4
@.str.1048 = private unnamed_addr constant [17 x i8] c"Option number %u\00", align 1
@.str.1049 = private unnamed_addr constant [15 x i8] c"unknown option\00", align 1
@.str.1050 = private unnamed_addr constant [20 x i8] c"unknown option data\00", align 1
@.str.1051 = private unnamed_addr constant [25 x i8] c"Type of data in the file\00", align 1
@.str.1052 = private unnamed_addr constant [22 x i8] c"Binary - Don't modify\00", align 1
@.str.1053 = private unnamed_addr constant [20 x i8] c"ASCII - Remove CR's\00", align 1
@.str.1054 = private unnamed_addr constant [13 x i8] c"Type of file\00", align 1
@.str.1055 = private unnamed_addr constant [11 x i8] c"Executable\00", align 1
@.str.1056 = private unnamed_addr constant [3 x i8] c"%s\00", align 1

; Function Attrs: null_pointer_is_valid sspstrong uwtable
define internal i32 @cmd_options(ptr noundef %0, i32 noundef %1, ptr noundef %2) #0 {
  %4 = alloca ptr, align 8
  %5 = alloca i32, align 4
  %6 = alloca ptr, align 8
  %7 = alloca i32, align 4
  %8 = alloca ptr, align 8
  %9 = alloca i32, align 4
  %10 = alloca i32, align 4
  %11 = alloca i32, align 4
  %12 = alloca i32, align 4
  %13 = alloca i32, align 4
  %14 = alloca i32, align 4
  %15 = alloca ptr, align 8
  %16 = alloca ptr, align 8
  store ptr %0, ptr %4, align 8
  store i32 %1, ptr %5, align 4
  store ptr %2, ptr %6, align 8
  call void @llvm.lifetime.start.p0(i64 4, ptr %7) #7
  call void @llvm.lifetime.start.p0(i64 8, ptr %8) #7
  call void @llvm.lifetime.start.p0(i64 4, ptr %9) #7
  call void @llvm.lifetime.start.p0(i64 4, ptr %10) #7
  call void @llvm.lifetime.start.p0(i64 4, ptr %11) #7
  call void @llvm.lifetime.start.p0(i64 4, ptr %12) #7
  call void @llvm.lifetime.start.p0(i64 4, ptr %13) #7
  call void @llvm.lifetime.start.p0(i64 4, ptr %14) #7
  call void @llvm.lifetime.start.p0(i64 8, ptr %15) #7
  call void @llvm.lifetime.start.p0(i64 8, ptr %16) #7
  %17 = load ptr, ptr %4, align 8
  %18 = load i32, ptr %5, align 4
  %19 = call i32 @tvb_reported_length_remaining(ptr noundef %17, i32 noundef %18)
  store i32 %19, ptr %7, align 4
  %20 = load ptr, ptr %6, align 8
  %21 = load i32, ptr @hf_gryphon_options_handle, align 4
  %22 = load ptr, ptr %4, align 8
  %23 = load i32, ptr %5, align 4
  %24 = call ptr @proto_tree_add_item(ptr noundef %20, i32 noundef %21, ptr noundef %22, i32 noundef %23, i32 noundef 1, i32 noundef 0)
  %25 = load ptr, ptr %6, align 8
  %26 = load i32, ptr @hf_gryphon_reserved, align 4
  %27 = load ptr, ptr %4, align 8
  %28 = load i32, ptr %5, align 4
  %29 = add i32 %28, 1
  %30 = call ptr @proto_tree_add_item(ptr noundef %25, i32 noundef %26, ptr noundef %27, i32 noundef %29, i32 noundef 3, i32 noundef 0)
  %31 = load i32, ptr %5, align 4
  %32 = add i32 %31, 4
  store i32 %32, ptr %5, align 4
  %33 = load i32, ptr %7, align 4
  %34 = sub i32 %33, 4
  store i32 %34, ptr %7, align 4
  store i32 1, ptr %9, align 4
  br label %35

35:                                               ; preds = %133, %3
  %36 = load i32, ptr %7, align 4
  %37 = icmp sgt i32 %36, 0
  br i1 %37, label %38, label %136

38:                                               ; preds = %35
  %39 = load ptr, ptr %4, align 8
  %40 = load i32, ptr %5, align 4
  %41 = add i32 %40, 1
  %42 = call zeroext i8 @tvb_get_uint8(ptr noundef %39, i32 noundef %41)
  %43 = zext i8 %42 to i32
  store i32 %43, ptr %13, align 4
  %44 = load i32, ptr %13, align 4
  %45 = add i32 %44, 2
  store i32 %45, ptr %10, align 4
  %46 = load i32, ptr %10, align 4
  %47 = add i32 %46, 3
  %48 = urem i32 %47, 4
  %49 = sub i32 3, %48
  store i32 %49, ptr %11, align 4
  %50 = load ptr, ptr %6, align 8
  %51 = load ptr, ptr %4, align 8
  %52 = load i32, ptr %5, align 4
  %53 = load i32, ptr %10, align 4
  %54 = load i32, ptr %11, align 4
  %55 = add i32 %53, %54
  %56 = load i32, ptr @ett_gryphon_pgm_options, align 4
  %57 = load i32, ptr %9, align 4
  %58 = call ptr (ptr, ptr, i32, i32, i32, ptr, ptr, ...) @proto_tree_add_subtree_format(ptr noundef %50, ptr noundef %51, i32 noundef %52, i32 noundef %55, i32 noundef %56, ptr noundef null, ptr noundef @.str.1048, i32 noundef %57)
  store ptr %58, ptr %8, align 8
  %59 = load ptr, ptr %4, align 8
  %60 = load i32, ptr %5, align 4
  %61 = call zeroext i8 @tvb_get_uint8(ptr noundef %59, i32 noundef %60)
  %62 = zext i8 %61 to i32
  store i32 %62, ptr %12, align 4
  %63 = load i32, ptr %13, align 4
  switch i32 %63, label %81 [
    i32 1, label %64
    i32 2, label %70
    i32 4, label %76
  ]

64:                                               ; preds = %38
  %65 = load ptr, ptr %4, align 8
  %66 = load i32, ptr %5, align 4
  %67 = add i32 %66, 2
  %68 = call zeroext i8 @tvb_get_uint8(ptr noundef %65, i32 noundef %67)
  %69 = zext i8 %68 to i32
  store i32 %69, ptr %14, align 4
  br label %82

70:                                               ; preds = %38
  %71 = load ptr, ptr %4, align 8
  %72 = load i32, ptr %5, align 4
  %73 = add i32 %72, 2
  %74 = call zeroext i16 @tvb_get_ntohs(ptr noundef %71, i32 noundef %73)
  %75 = zext i16 %74 to i32
  store i32 %75, ptr %14, align 4
  br label %82

76:                                               ; preds = %38
  %77 = load ptr, ptr %4, align 8
  %78 = load i32, ptr %5, align 4
  %79 = add i32 %78, 2
  %80 = call i32 @tvb_get_ntohl(ptr noundef %77, i32 noundef %79)
  store i32 %80, ptr %14, align 4
  br label %82

81:                                               ; preds = %38
  store i32 0, ptr %14, align 4
  br label %82

82:                                               ; preds = %81, %76, %70, %64
  store ptr @.str.1049, ptr %15, align 8
  store ptr @.str.1050, ptr %16, align 8
  %83 = load i32, ptr %12, align 4
  switch i32 %83, label %94 [
    i32 1, label %84
    i32 2, label %89
  ]

84:                                               ; preds = %82
  store ptr @.str.1051, ptr %15, align 8
  %85 = load i32, ptr %14, align 4
  switch i32 %85, label %88 [
    i32 11, label %86
    i32 12, label %87
  ]

86:                                               ; preds = %84
  store ptr @.str.1052, ptr %16, align 8
  br label %88

87:                                               ; preds = %84
  store ptr @.str.1053, ptr %16, align 8
  br label %88

88:                                               ; preds = %84, %87, %86
  br label %94

89:                                               ; preds = %82
  store ptr @.str.1054, ptr %15, align 8
  %90 = load i32, ptr %14, align 4
  switch i32 %90, label %93 [
    i32 21, label %91
    i32 22, label %92
  ]

91:                                               ; preds = %89
  store ptr @.str.1055, ptr %16, align 8
  br label %93

92:                                               ; preds = %89
  store ptr @.str.20, ptr %16, align 8
  br label %93

93:                                               ; preds = %89, %92, %91
  br label %94

94:                                               ; preds = %82, %93, %88
  %95 = load ptr, ptr %8, align 8
  %96 = load i32, ptr @hf_gryphon_option, align 4
  %97 = load ptr, ptr %4, align 8
  %98 = load i32, ptr %5, align 4
  %99 = load i32, ptr %12, align 4
  %100 = load ptr, ptr %15, align 8
  %101 = call ptr (ptr, i32, ptr, i32, i32, i32, ptr, ...) @proto_tree_add_uint_format_value(ptr noundef %95, i32 noundef %96, ptr noundef %97, i32 noundef %98, i32 noundef 1, i32 noundef %99, ptr noundef @.str.1056, ptr noundef %100)
  %102 = load ptr, ptr %8, align 8
  %103 = load i32, ptr @hf_gryphon_option_data, align 4
  %104 = load ptr, ptr %4, align 8
  %105 = load i32, ptr %5, align 4
  %106 = add i32 %105, 2
  %107 = load i32, ptr %13, align 4
  %108 = load ptr, ptr %16, align 8
  %109 = call ptr (ptr, i32, ptr, i32, i32, ptr, ptr, ...) @proto_tree_add_bytes_format_value(ptr noundef %102, i32 noundef %103, ptr noundef %104, i32 noundef %106, i32 noundef %107, ptr noundef null, ptr noundef @.str.1056, ptr noundef %108)
  %110 = load i32, ptr %11, align 4
  %111 = icmp ne i32 %110, 0
  br i1 %111, label %112, label %122

112:                                              ; preds = %94
  %113 = load ptr, ptr %8, align 8
  %114 = load i32, ptr @hf_gryphon_padding, align 4
  %115 = load ptr, ptr %4, align 8
  %116 = load i32, ptr %5, align 4
  %117 = load i32, ptr %13, align 4
  %118 = add i32 %116, %117
  %119 = add i32 %118, 2
  %120 = load i32, ptr %11, align 4
  %121 = call ptr @proto_tree_add_item(ptr noundef %113, i32 noundef %114, ptr noundef %115, i32 noundef %119, i32 noundef %120, i32 noundef 0)
  br label %122

122:                                              ; preds = %112, %94
  %123 = load i32, ptr %10, align 4
  %124 = load i32, ptr %11, align 4
  %125 = add i32 %123, %124
  %126 = load i32, ptr %5, align 4
  %127 = add i32 %126, %125
  store i32 %127, ptr %5, align 4
  %128 = load i32, ptr %10, align 4
  %129 = load i32, ptr %11, align 4
  %130 = add i32 %128, %129
  %131 = load i32, ptr %7, align 4
  %132 = sub i32 %131, %130
  store i32 %132, ptr %7, align 4
  br label %133

133:                                              ; preds = %122
  %134 = load i32, ptr %9, align 4
  %135 = add i32 %134, 1
  store i32 %135, ptr %9, align 4
  br label %35, !llvm.loop !18

136:                                              ; preds = %35
  %137 = load i32, ptr %5, align 4
  call void @llvm.lifetime.end.p0(i64 8, ptr %16) #7
  call void @llvm.lifetime.end.p0(i64 8, ptr %15) #7
  call void @llvm.lifetime.end.p0(i64 4, ptr %14) #7
  call void @llvm.lifetime.end.p0(i64 4, ptr %13) #7
  call void @llvm.lifetime.end.p0(i64 4, ptr %12) #7
  call void @llvm.lifetime.end.p0(i64 4, ptr %11) #7
  call void @llvm.lifetime.end.p0(i64 4, ptr %10) #7
  call void @llvm.lifetime.end.p0(i64 4, ptr %9) #7
  call void @llvm.lifetime.end.p0(i64 8, ptr %8) #7
  call void @llvm.lifetime.end.p0(i64 4, ptr %7) #7
  ret i32 %137
}