; Function Attrs: null_pointer_is_valid sspstrong uwtable
define internal fastcc i32 @cmd_options(ptr noundef %0, ptr noundef %1) unnamed_addr #0 {
  %3 = tail call i32 @tvb_reported_length_remaining(ptr noundef %0, i32 noundef 12)
  %4 = load i32, ptr @hf_gryphon_options_handle, align 4
  %5 = tail call ptr @proto_tree_add_item(ptr noundef %1, i32 noundef %4, ptr noundef %0, i32 noundef 12, i32 noundef 1, i32 noundef 0)
  %6 = load i32, ptr @hf_gryphon_reserved, align 4
  %7 = tail call ptr @proto_tree_add_item(ptr noundef %1, i32 noundef %6, ptr noundef %0, i32 noundef 13, i32 noundef 3, i32 noundef 0)
  %8 = add i32 %3, -4
  %9 = icmp sgt i32 %8, 0
  br i1 %9, label %.lr.ph, label %._crit_edge

.lr.ph:                                           ; preds = %2, %51
  %.05864 = phi i32 [ %52, %51 ], [ 16, %2 ]
  %.05963 = phi i32 [ %53, %51 ], [ %8, %2 ]
  %.06062 = phi i32 [ %54, %51 ], [ 1, %2 ]
  %10 = add i32 %.05864, 1
  %11 = tail call zeroext i8 @tvb_get_uint8(ptr noundef %0, i32 noundef %10)
  %12 = zext i8 %11 to i32
  %13 = add nuw nsw i32 %12, 2
  %14 = add nuw nsw i32 %12, 1
  %15 = and i32 %14, 3
  %16 = xor i32 %15, 3
  %17 = add nuw nsw i32 %13, %16
  %18 = load i32, ptr @ett_gryphon_pgm_options, align 4
  %19 = tail call ptr (ptr, ptr, i32, i32, i32, ptr, ptr, ...) @proto_tree_add_subtree_format(ptr noundef %1, ptr noundef %0, i32 noundef %.05864, i32 noundef %17, i32 noundef %18, ptr noundef null, ptr noundef nonnull @.str.1048, i32 noundef %.06062)
  %20 = tail call zeroext i8 @tvb_get_uint8(ptr noundef %0, i32 noundef %.05864)
  %21 = zext i8 %20 to i32
  switch i8 %11, label %33 [
    i8 1, label %22
    i8 2, label %26
    i8 4, label %30
  ]

22:                                               ; preds = %.lr.ph
  %23 = add i32 %.05864, 2
  %24 = tail call zeroext i8 @tvb_get_uint8(ptr noundef %0, i32 noundef %23)
  %25 = zext i8 %24 to i32
  br label %33

26:                                               ; preds = %.lr.ph
  %27 = add i32 %.05864, 2
  %28 = tail call zeroext i16 @tvb_get_ntohs(ptr noundef %0, i32 noundef %27)
  %29 = zext i16 %28 to i32
  br label %33

30:                                               ; preds = %.lr.ph
  %31 = add i32 %.05864, 2
  %32 = tail call i32 @tvb_get_ntohl(ptr noundef %0, i32 noundef %31)
  br label %33

33:                                               ; preds = %.lr.ph, %30, %26, %22
  %.057 = phi i32 [ %32, %30 ], [ %29, %26 ], [ %25, %22 ], [ 0, %.lr.ph ]
  switch i8 %20, label %40 [
    i8 1, label %34
    i8 2, label %37
  ]

34:                                               ; preds = %33
  switch i32 %.057, label %40 [
    i32 11, label %35
    i32 12, label %36
  ]

35:                                               ; preds = %34
  br label %40

36:                                               ; preds = %34
  br label %40

37:                                               ; preds = %33
  switch i32 %.057, label %40 [
    i32 21, label %38
    i32 22, label %39
  ]

38:                                               ; preds = %37
  br label %40

39:                                               ; preds = %37
  br label %40

40:                                               ; preds = %37, %38, %39, %34, %35, %36, %33
  %.056 = phi ptr [ @.str.1049, %33 ], [ @.str.1054, %37 ], [ @.str.1054, %39 ], [ @.str.1054, %38 ], [ @.str.1051, %34 ], [ @.str.1051, %36 ], [ @.str.1051, %35 ]
  %.0 = phi ptr [ @.str.1050, %33 ], [ @.str.1050, %37 ], [ @.str.20, %39 ], [ @.str.1055, %38 ], [ @.str.1050, %34 ], [ @.str.1053, %36 ], [ @.str.1052, %35 ]
  %41 = load i32, ptr @hf_gryphon_option, align 4
  %42 = tail call ptr (ptr, i32, ptr, i32, i32, i32, ptr, ...) @proto_tree_add_uint_format_value(ptr noundef %19, i32 noundef %41, ptr noundef %0, i32 noundef %.05864, i32 noundef 1, i32 noundef %21, ptr noundef nonnull @.str.1056, ptr noundef nonnull %.056)
  %43 = load i32, ptr @hf_gryphon_option_data, align 4
  %44 = add i32 %.05864, 2
  %45 = tail call ptr (ptr, i32, ptr, i32, i32, ptr, ptr, ...) @proto_tree_add_bytes_format_value(ptr noundef %19, i32 noundef %43, ptr noundef %0, i32 noundef %44, i32 noundef %12, ptr noundef null, ptr noundef nonnull @.str.1056, ptr noundef nonnull %.0)
  %46 = and i32 %12, 3
  %.not = icmp eq i32 %46, 2
  br i1 %.not, label %51, label %47

47:                                               ; preds = %40
  %48 = load i32, ptr @hf_gryphon_padding, align 4
  %49 = add i32 %44, %12
  %50 = tail call ptr @proto_tree_add_item(ptr noundef %19, i32 noundef %48, ptr noundef %0, i32 noundef %49, i32 noundef %16, i32 noundef 0)
  br label %51

51:                                               ; preds = %47, %40
  %52 = add i32 %17, %.05864
  %53 = sub nsw i32 %.05963, %17
  %54 = add i32 %.06062, 1
  %55 = icmp sgt i32 %53, 0
  br i1 %55, label %.lr.ph, label %._crit_edge, !llvm.loop !18

._crit_edge:                                      ; preds = %51, %2
  %.058.lcssa = phi i32 [ 16, %2 ], [ %52, %51 ]
  ret i32 %.058.lcssa
}